target datalayout = "e-m:e-p270:32:32-p271:32:32-p272:64:64-i64:64-i128:128-f80:128-n8:16:32:64-S128"
target triple = "x86_64-pc-linux-gnu"

%struct.VP8LTransform = type { i32, i32, i32, i32, ptr }

@VP8LMapColor8b = hidden global ptr null, align 8

; Function Attrs: inlinehint nounwind uwtable
define internal zeroext i8 @VP8GetAlphaValue(i32 noundef %0) #2 {
  %2 = alloca i32, align 4
  store i32 %0, ptr %2, align 4, !tbaa !8
  %3 = load i32, ptr %2, align 4, !tbaa !8
  %4 = lshr i32 %3, 8
  %5 = and i32 %4, 255
  %6 = trunc i32 %5 to i8
  ret i8 %6
}

; Function Attrs: inlinehint nounwind uwtable
define internal zeroext i8 @VP8GetAlphaIndex(i8 noundef zeroext %0) #2 {
  %2 = alloca i8, align 1
  store i8 %0, ptr %2, align 1, !tbaa !13
  %3 = load i8, ptr %2, align 1, !tbaa !13
  ret i8 %3
}

; Function Attrs: nounwind uwtable
define hidden void @VP8LColorIndexInverseTransformAlpha(ptr noundef %0, i32 noundef %1, i32 noundef %2, ptr noundef %3, ptr noundef %4) #0 {
  %6 = alloca ptr, align 8
  %7 = alloca i32, align 4
  %8 = alloca i32, align 4
  %9 = alloca ptr, align 8
  %10 = alloca ptr, align 8
  %11 = alloca i32, align 4
  %12 = alloca i32, align 4
  %13 = alloca i32, align 4
  %14 = alloca ptr, align 8
  %15 = alloca i32, align 4
  %16 = alloca i32, align 4
  %17 = alloca i32, align 4
  %18 = alloca i32, align 4
  %19 = alloca i32, align 4
  store ptr %0, ptr %6, align 8, !tbaa !19
  store i32 %1, ptr %7, align 4, !tbaa !8
  store i32 %2, ptr %8, align 4, !tbaa !8
  store ptr %3, ptr %9, align 8, !tbaa !21
  store ptr %4, ptr %10, align 8, !tbaa !21
  call void @llvm.lifetime.start.p0(i64 4, ptr %11) #8
  call void @llvm.lifetime.start.p0(i64 4, ptr %12) #8
  %20 = load ptr, ptr %6, align 8, !tbaa !19
  %21 = getelementptr inbounds nuw %struct.VP8LTransform, ptr %20, i32 0, i32 1
  %22 = load i32, ptr %21, align 4, !tbaa !23
  %23 = ashr i32 8, %22
  store i32 %23, ptr %12, align 4, !tbaa !8
  call void @llvm.lifetime.start.p0(i64 4, ptr %13) #8
  %24 = load ptr, ptr %6, align 8, !tbaa !19
  %25 = getelementptr inbounds nuw %struct.VP8LTransform, ptr %24, i32 0, i32 2
  %26 = load i32, ptr %25, align 8, !tbaa !25
  store i32 %26, ptr %13, align 4, !tbaa !8
  call void @llvm.lifetime.start.p0(i64 8, ptr %14) #8
  %27 = load ptr, ptr %6, align 8, !tbaa !19
  %28 = getelementptr inbounds nuw %struct.VP8LTransform, ptr %27, i32 0, i32 4
  %29 = load ptr, ptr %28, align 8, !tbaa !26
  store ptr %29, ptr %14, align 8, !tbaa !3
  %30 = load i32, ptr %12, align 4, !tbaa !8
  %31 = icmp slt i32 %30, 8
  br i1 %31, label %32, label %85

32:                                               ; preds = %5
  call void @llvm.lifetime.start.p0(i64 4, ptr %15) #8
  %33 = load ptr, ptr %6, align 8, !tbaa !19
  %34 = getelementptr inbounds nuw %struct.VP8LTransform, ptr %33, i32 0, i32 1
  %35 = load i32, ptr %34, align 4, !tbaa !23
  %36 = shl i32 1, %35
  store i32 %36, ptr %15, align 4, !tbaa !8
  call void @llvm.lifetime.start.p0(i64 4, ptr %16) #8
  %37 = load i32, ptr %15, align 4, !tbaa !8
  %38 = sub nsw i32 %37, 1
  store i32 %38, ptr %16, align 4, !tbaa !8
  call void @llvm.lifetime.start.p0(i64 4, ptr %17) #8
  %39 = load i32, ptr %12, align 4, !tbaa !8
  %40 = shl i32 1, %39
  %41 = sub nsw i32 %40, 1
  store i32 %41, ptr %17, align 4, !tbaa !8
  %42 = load i32, ptr %7, align 4, !tbaa !8
  store i32 %42, ptr %11, align 4, !tbaa !8
  br label %43

43:                                               ; preds = %81, %32
  %44 = load i32, ptr %11, align 4, !tbaa !8
  %45 = load i32, ptr %8, align 4, !tbaa !8
  %46 = icmp slt i32 %44, %45
  br i1 %46, label %47, label %84

47:                                               ; preds = %43
  call void @llvm.lifetime.start.p0(i64 4, ptr %18) #8
  store i32 0, ptr %18, align 4, !tbaa !8
  call void @llvm.lifetime.start.p0(i64 4, ptr %19) #8
  store i32 0, ptr %19, align 4, !tbaa !8
  br label %48

48:                                               ; preds = %77, %47
  %49 = load i32, ptr %19, align 4, !tbaa !8
  %50 = load i32, ptr %13, align 4, !tbaa !8
  %51 = icmp slt i32 %49, %50
  br i1 %51, label %52, label %80

52:                                               ; preds = %48
  %53 = load i32, ptr %19, align 4, !tbaa !8
  %54 = load i32, ptr %16, align 4, !tbaa !8
  %55 = and i32 %53, %54
  %56 = icmp eq i32 %55, 0
  br i1 %56, label %57, label %63

57:                                               ; preds = %52
  %58 = load ptr, ptr %9, align 8, !tbaa !21
  %59 = getelementptr inbounds nuw i8, ptr %58, i32 1
  store ptr %59, ptr %9, align 8, !tbaa !21
  %60 = load i8, ptr %58, align 1, !tbaa !13
  %61 = call zeroext i8 @VP8GetAlphaIndex(i8 noundef zeroext %60)
  %62 = zext i8 %61 to i32
  store i32 %62, ptr %18, align 4, !tbaa !8
  br label %63

63:                                               ; preds = %57, %52
  %64 = load ptr, ptr %14, align 8, !tbaa !3
  %65 = load i32, ptr %18, align 4, !tbaa !8
  %66 = load i32, ptr %17, align 4, !tbaa !8
  %67 = and i32 %65, %66
  %68 = zext i32 %67 to i64
  %69 = getelementptr inbounds nuw i32, ptr %64, i64 %68
  %70 = load i32, ptr %69, align 4, !tbaa !8
  %71 = call zeroext i8 @VP8GetAlphaValue(i32 noundef %70)
  %72 = load ptr, ptr %10, align 8, !tbaa !21
  %73 = getelementptr inbounds nuw i8, ptr %72, i32 1
  store ptr %73, ptr %10, align 8, !tbaa !21
  store i8 %71, ptr %72, align 1, !tbaa !13
  %74 = load i32, ptr %12, align 4, !tbaa !8
  %75 = load i32, ptr %18, align 4, !tbaa !8
  %76 = lshr i32 %75, %74
  store i32 %76, ptr %18, align 4, !tbaa !8
  br label %77

77:                                               ; preds = %63
  %78 = load i32, ptr %19, align 4, !tbaa !8
  %79 = add nsw i32 %78, 1
  store i32 %79, ptr %19, align 4, !tbaa !8
  br label %48, !llvm.loop !27

80:                                               ; preds = %48
  call void @llvm.lifetime.end.p0(i64 4, ptr %19) #8
  call void @llvm.lifetime.end.p0(i64 4, ptr %18) #8
  br label %81

81:                                               ; preds = %80
  %82 = load i32, ptr %11, align 4, !tbaa !8
  %83 = add nsw i32 %82, 1
  store i32 %83, ptr %11, align 4, !tbaa !8
  br label %43, !llvm.loop !28

84:                                               ; preds = %43
  call void @llvm.lifetime.end.p0(i64 4, ptr %17) #8
  call void @llvm.lifetime.end.p0(i64 4, ptr %16) #8
  call void @llvm.lifetime.end.p0(i64 4, ptr %15) #8
  br label %93

85:                                               ; preds = %5
  %86 = load ptr, ptr @VP8LMapColor8b, align 8, !tbaa !12
  %87 = load ptr, ptr %9, align 8, !tbaa !21
  %88 = load ptr, ptr %14, align 8, !tbaa !3
  %89 = load ptr, ptr %10, align 8, !tbaa !21
  %90 = load i32, ptr %7, align 4, !tbaa !8
  %91 = load i32, ptr %8, align 4, !tbaa !8
  %92 = load i32, ptr %13, align 4, !tbaa !8
  call void %86(ptr noundef %87, ptr noundef %88, ptr noundef %89, i32 noundef %90, i32 noundef %91, i32 noundef %92)
  br label %93

93:                                               ; preds = %85, %84
  call void @llvm.lifetime.end.p0(i64 8, ptr %14) #8
  call void @llvm.lifetime.end.p0(i64 4, ptr %13) #8
  call void @llvm.lifetime.end.p0(i64 4, ptr %12) #8
  call void @llvm.lifetime.end.p0(i64 4, ptr %11) #8
  ret void
}