; Function Attrs: nounwind uwtable
define hidden void @VP8LColorIndexInverseTransformAlpha(ptr noundef readonly captures(none) %0, i32 noundef %1, i32 noundef %2, ptr noundef %3, ptr noundef %4) local_unnamed_addr #3 {
  %6 = getelementptr inbounds nuw i8, ptr %0, i64 4
  %7 = load i32, ptr %6, align 4, !tbaa !14
  %8 = lshr i32 8, %7
  %9 = getelementptr inbounds nuw i8, ptr %0, i64 8
  %10 = load i32, ptr %9, align 8, !tbaa !18
  %11 = getelementptr inbounds nuw i8, ptr %0, i64 16
  %12 = load ptr, ptr %11, align 8, !tbaa !19
  %.not = icmp eq i32 %7, 0
  br i1 %.not, label %36, label %13

13:                                               ; preds = %5
  %notmask = shl nsw i32 -1, %7
  %14 = xor i32 %notmask, -1
  %notmask35 = shl nsw i32 -1, %8
  %15 = xor i32 %notmask35, -1
  %16 = icmp slt i32 %1, %2
  %17 = icmp sgt i32 %10, 0
  %or.cond = select i1 %16, i1 %17, i1 false
  br i1 %or.cond, label %.preheader.us, label %.loopexit

.preheader.us:                                    ; preds = %13, %._crit_edge.us
  %.02943.us = phi ptr [ %.2.us, %._crit_edge.us ], [ %3, %13 ]
  %.03142.us = phi ptr [ %32, %._crit_edge.us ], [ %4, %13 ]
  %.03341.us = phi i32 [ %35, %._crit_edge.us ], [ %1, %13 ]
  br label %18

18:                                               ; preds = %.preheader.us, %25
  %.039.us = phi i32 [ 0, %.preheader.us ], [ %34, %25 ]
  %.02838.us = phi i32 [ 0, %.preheader.us ], [ %33, %25 ]
  %.13037.us = phi ptr [ %.02943.us, %.preheader.us ], [ %.2.us, %25 ]
  %.13236.us = phi ptr [ %.03142.us, %.preheader.us ], [ %32, %25 ]
  %19 = and i32 %.039.us, %14
  %20 = icmp eq i32 %19, 0
  br i1 %20, label %21, label %25

21:                                               ; preds = %18
  %22 = getelementptr inbounds nuw i8, ptr %.13037.us, i64 1
  %23 = load i8, ptr %.13037.us, align 1, !tbaa !20
  %24 = zext i8 %23 to i32
  br label %25

25:                                               ; preds = %21, %18
  %.2.us = phi ptr [ %22, %21 ], [ %.13037.us, %18 ]
  %.1.us = phi i32 [ %24, %21 ], [ %.02838.us, %18 ]
  %26 = and i32 %.1.us, %15
  %27 = zext nneg i32 %26 to i64
  %28 = getelementptr inbounds nuw i32, ptr %12, i64 %27
  %29 = load i32, ptr %28, align 4, !tbaa !3
  %30 = lshr i32 %29, 8
  %31 = trunc i32 %30 to i8
  %32 = getelementptr inbounds nuw i8, ptr %.13236.us, i64 1
  store i8 %31, ptr %.13236.us, align 1, !tbaa !20
  %33 = lshr i32 %.1.us, %8
  %34 = add nuw nsw i32 %.039.us, 1
  %exitcond.not = icmp eq i32 %34, %10
  br i1 %exitcond.not, label %._crit_edge.us, label %18, !llvm.loop !21

._crit_edge.us:                                   ; preds = %25
  %35 = add nsw i32 %.03341.us, 1
  %exitcond45.not = icmp eq i32 %35, %2
  br i1 %exitcond45.not, label %.loopexit, label %.preheader.us, !llvm.loop !22

36:                                               ; preds = %5
  %37 = load ptr, ptr @VP8LMapColor8b, align 8, !tbaa !23
  tail call void %37(ptr noundef %3, ptr noundef %12, ptr noundef %4, i32 noundef %1, i32 noundef %2, i32 noundef %10) #12
  br label %.loopexit

.loopexit:                                        ; preds = %._crit_edge.us, %13, %36
  ret void
}